target datalayout = "e-m:e-p270:32:32-p271:32:32-p272:64:64-i64:64-i128:128-f80:128-n8:16:32:64-S128"
target triple = "x86_64-pc-linux-gnu"

%struct.Fraig_NodeVecStruct_t_ = type { i32, i32, ptr }
%struct.Fraig_NodeStruct_t_ = type { i32, i32, i32, i32, i32, i32, i32, ptr, ptr, ptr, ptr, ptr, ptr, ptr, ptr, i32, i32, ptr, ptr, ptr, ptr, ptr, ptr, ptr }

; Function Attrs: nounwind uwtable
define void @Fraig_NodeVecGrow(ptr noundef %0, i32 noundef %1) #0 {
  %3 = alloca ptr, align 8
  %4 = alloca i32, align 4
  store ptr %0, ptr %3, align 8, !tbaa !7
  store i32 %1, ptr %4, align 4, !tbaa !3
  %5 = load ptr, ptr %3, align 8, !tbaa !7
  %6 = getelementptr inbounds nuw %struct.Fraig_NodeVecStruct_t_, ptr %5, i32 0, i32 0
  %7 = load i32, ptr %6, align 8, !tbaa !13
  %8 = load i32, ptr %4, align 4, !tbaa !3
  %9 = icmp sge i32 %7, %8
  br i1 %9, label %10, label %11

10:                                               ; preds = %2
  br label %36

11:                                               ; preds = %2
  %12 = load ptr, ptr %3, align 8, !tbaa !7
  %13 = getelementptr inbounds nuw %struct.Fraig_NodeVecStruct_t_, ptr %12, i32 0, i32 2
  %14 = load ptr, ptr %13, align 8, !tbaa !14
  %15 = icmp ne ptr %14, null
  br i1 %15, label %16, label %24

16:                                               ; preds = %11
  %17 = load ptr, ptr %3, align 8, !tbaa !7
  %18 = getelementptr inbounds nuw %struct.Fraig_NodeVecStruct_t_, ptr %17, i32 0, i32 2
  %19 = load ptr, ptr %18, align 8, !tbaa !14
  %20 = load i32, ptr %4, align 4, !tbaa !3
  %21 = sext i32 %20 to i64
  %22 = mul i64 8, %21
  %23 = call ptr @realloc(ptr noundef %19, i64 noundef %22) #9
  br label %29

24:                                               ; preds = %11
  %25 = load i32, ptr %4, align 4, !tbaa !3
  %26 = sext i32 %25 to i64
  %27 = mul i64 8, %26
  %28 = call noalias ptr @malloc(i64 noundef %27) #8
  br label %29

29:                                               ; preds = %24, %16
  %30 = phi ptr [ %23, %16 ], [ %28, %24 ]
  %31 = load ptr, ptr %3, align 8, !tbaa !7
  %32 = getelementptr inbounds nuw %struct.Fraig_NodeVecStruct_t_, ptr %31, i32 0, i32 2
  store ptr %30, ptr %32, align 8, !tbaa !14
  %33 = load i32, ptr %4, align 4, !tbaa !3
  %34 = load ptr, ptr %3, align 8, !tbaa !7
  %35 = getelementptr inbounds nuw %struct.Fraig_NodeVecStruct_t_, ptr %34, i32 0, i32 0
  store i32 %33, ptr %35, align 8, !tbaa !13
  br label %36

36:                                               ; preds = %29, %10
  ret void
}

; Function Attrs: nounwind uwtable
define void @Fraig_NodeVecPush(ptr noundef %0, ptr noundef %1) #0 {
  %3 = alloca ptr, align 8
  %4 = alloca ptr, align 8
  store ptr %0, ptr %3, align 8, !tbaa !7
  store ptr %1, ptr %4, align 8, !tbaa !15
  %5 = load ptr, ptr %3, align 8, !tbaa !7
  %6 = getelementptr inbounds nuw %struct.Fraig_NodeVecStruct_t_, ptr %5, i32 0, i32 1
  %7 = load i32, ptr %6, align 4, !tbaa !10
  %8 = load ptr, ptr %3, align 8, !tbaa !7
  %9 = getelementptr inbounds nuw %struct.Fraig_NodeVecStruct_t_, ptr %8, i32 0, i32 0
  %10 = load i32, ptr %9, align 8, !tbaa !13
  %11 = icmp eq i32 %7, %10
  br i1 %11, label %12, label %26

12:                                               ; preds = %2
  %13 = load ptr, ptr %3, align 8, !tbaa !7
  %14 = getelementptr inbounds nuw %struct.Fraig_NodeVecStruct_t_, ptr %13, i32 0, i32 0
  %15 = load i32, ptr %14, align 8, !tbaa !13
  %16 = icmp slt i32 %15, 16
  br i1 %16, label %17, label %19

17:                                               ; preds = %12
  %18 = load ptr, ptr %3, align 8, !tbaa !7
  call void @Fraig_NodeVecGrow(ptr noundef %18, i32 noundef 16)
  br label %25

19:                                               ; preds = %12
  %20 = load ptr, ptr %3, align 8, !tbaa !7
  %21 = load ptr, ptr %3, align 8, !tbaa !7
  %22 = getelementptr inbounds nuw %struct.Fraig_NodeVecStruct_t_, ptr %21, i32 0, i32 0
  %23 = load i32, ptr %22, align 8, !tbaa !13
  %24 = mul nsw i32 2, %23
  call void @Fraig_NodeVecGrow(ptr noundef %20, i32 noundef %24)
  br label %25

25:                                               ; preds = %19, %17
  br label %26

26:                                               ; preds = %25, %2
  %27 = load ptr, ptr %4, align 8, !tbaa !15
  %28 = load ptr, ptr %3, align 8, !tbaa !7
  %29 = getelementptr inbounds nuw %struct.Fraig_NodeVecStruct_t_, ptr %28, i32 0, i32 2
  %30 = load ptr, ptr %29, align 8, !tbaa !14
  %31 = load ptr, ptr %3, align 8, !tbaa !7
  %32 = getelementptr inbounds nuw %struct.Fraig_NodeVecStruct_t_, ptr %31, i32 0, i32 1
  %33 = load i32, ptr %32, align 4, !tbaa !10
  %34 = add nsw i32 %33, 1
  store i32 %34, ptr %32, align 4, !tbaa !10
  %35 = sext i32 %33 to i64
  %36 = getelementptr inbounds ptr, ptr %30, i64 %35
  store ptr %27, ptr %36, align 8, !tbaa !15
  ret void
}

; Function Attrs: nounwind uwtable
define void @Fraig_NodeVecPushOrderByLevel(ptr noundef %0, ptr noundef %1) #0 {
  %3 = alloca ptr, align 8
  %4 = alloca ptr, align 8
  %5 = alloca ptr, align 8
  %6 = alloca ptr, align 8
  %7 = alloca i32, align 4
  store ptr %0, ptr %3, align 8, !tbaa !7
  store ptr %1, ptr %4, align 8, !tbaa !15
  call void @llvm.lifetime.start.p0(i64 8, ptr %5) #7
  call void @llvm.lifetime.start.p0(i64 8, ptr %6) #7
  call void @llvm.lifetime.start.p0(i64 4, ptr %7) #7
  %8 = load ptr, ptr %3, align 8, !tbaa !7
  %9 = load ptr, ptr %4, align 8, !tbaa !15
  call void @Fraig_NodeVecPush(ptr noundef %8, ptr noundef %9)
  %10 = load ptr, ptr %3, align 8, !tbaa !7
  %11 = getelementptr inbounds nuw %struct.Fraig_NodeVecStruct_t_, ptr %10, i32 0, i32 1
  %12 = load i32, ptr %11, align 4, !tbaa !10
  %13 = sub nsw i32 %12, 1
  store i32 %13, ptr %7, align 4, !tbaa !3
  br label %14

14:                                               ; preds = %63, %2
  %15 = load i32, ptr %7, align 4, !tbaa !3
  %16 = icmp sgt i32 %15, 0
  br i1 %16, label %17, label %66

17:                                               ; preds = %14
  %18 = load ptr, ptr %3, align 8, !tbaa !7
  %19 = getelementptr inbounds nuw %struct.Fraig_NodeVecStruct_t_, ptr %18, i32 0, i32 2
  %20 = load ptr, ptr %19, align 8, !tbaa !14
  %21 = load i32, ptr %7, align 4, !tbaa !3
  %22 = sext i32 %21 to i64
  %23 = getelementptr inbounds ptr, ptr %20, i64 %22
  %24 = load ptr, ptr %23, align 8, !tbaa !15
  store ptr %24, ptr %5, align 8, !tbaa !15
  %25 = load ptr, ptr %3, align 8, !tbaa !7
  %26 = getelementptr inbounds nuw %struct.Fraig_NodeVecStruct_t_, ptr %25, i32 0, i32 2
  %27 = load ptr, ptr %26, align 8, !tbaa !14
  %28 = load i32, ptr %7, align 4, !tbaa !3
  %29 = sub nsw i32 %28, 1
  %30 = sext i32 %29 to i64
  %31 = getelementptr inbounds ptr, ptr %27, i64 %30
  %32 = load ptr, ptr %31, align 8, !tbaa !15
  store ptr %32, ptr %6, align 8, !tbaa !15
  %33 = load ptr, ptr %5, align 8, !tbaa !15
  %34 = ptrtoint ptr %33 to i64
  %35 = and i64 %34, -2
  %36 = inttoptr i64 %35 to ptr
  %37 = getelementptr inbounds nuw %struct.Fraig_NodeStruct_t_, ptr %36, i32 0, i32 2
  %38 = load i32, ptr %37, align 8, !tbaa !21
  %39 = load ptr, ptr %6, align 8, !tbaa !15
  %40 = ptrtoint ptr %39 to i64
  %41 = and i64 %40, -2
  %42 = inttoptr i64 %41 to ptr
  %43 = getelementptr inbounds nuw %struct.Fraig_NodeStruct_t_, ptr %42, i32 0, i32 2
  %44 = load i32, ptr %43, align 8, !tbaa !21
  %45 = icmp sle i32 %38, %44
  br i1 %45, label %46, label %47

46:                                               ; preds = %17
  br label %66

47:                                               ; preds = %17
  %48 = load ptr, ptr %6, align 8, !tbaa !15
  %49 = load ptr, ptr %3, align 8, !tbaa !7
  %50 = getelementptr inbounds nuw %struct.Fraig_NodeVecStruct_t_, ptr %49, i32 0, i32 2
  %51 = load ptr, ptr %50, align 8, !tbaa !14
  %52 = load i32, ptr %7, align 4, !tbaa !3
  %53 = sext i32 %52 to i64
  %54 = getelementptr inbounds ptr, ptr %51, i64 %53
  store ptr %48, ptr %54, align 8, !tbaa !15
  %55 = load ptr, ptr %5, align 8, !tbaa !15
  %56 = load ptr, ptr %3, align 8, !tbaa !7
  %57 = getelementptr inbounds nuw %struct.Fraig_NodeVecStruct_t_, ptr %56, i32 0, i32 2
  %58 = load ptr, ptr %57, align 8, !tbaa !14
  %59 = load i32, ptr %7, align 4, !tbaa !3
  %60 = sub nsw i32 %59, 1
  %61 = sext i32 %60 to i64
  %62 = getelementptr inbounds ptr, ptr %58, i64 %61
  store ptr %55, ptr %62, align 8, !tbaa !15
  br label %63

63:                                               ; preds = %47
  %64 = load i32, ptr %7, align 4, !tbaa !3
  %65 = add nsw i32 %64, -1
  store i32 %65, ptr %7, align 4, !tbaa !3
  br label %14, !llvm.loop !24

66:                                               ; preds = %46, %14
  call void @llvm.lifetime.end.p0(i64 4, ptr %7) #7
  call void @llvm.lifetime.end.p0(i64 8, ptr %6) #7
  call void @llvm.lifetime.end.p0(i64 8, ptr %5) #7
  ret void
}